target datalayout = "e-m:e-p270:32:32-p271:32:32-p272:64:64-i64:64-i128:128-f80:128-n8:16:32:64-S128"
target triple = "x86_64-unknown-linux-gnu"

%"class.std::__cxx11::basic_string" = type { %"struct.std::__cxx11::basic_string<char>::_Alloc_hider", i64, %union.anon }
%"struct.std::__cxx11::basic_string<char>::_Alloc_hider" = type { ptr }
%union.anon = type { i64, [8 x i8] }
%"class.google::LogMessageFatal" = type { %"class.google::LogMessage" }
%"class.google::LogMessage" = type { ptr, ptr, %"struct.google::LogMessageTime" }
%"struct.google::LogMessageTime" = type { %struct.tm, i64, i32, i64 }
%struct.tm = type { i32, i32, i32, i32, i32, i32, i32, i32, i32, i64, ptr }

@_ZN8proxygen12_GLOBAL__N_18http_1_1B5cxx11E = internal global %"class.std::__cxx11::basic_string" zeroinitializer, align 8
@_ZN8proxygen12_GLOBAL__N_16http_2B5cxx11E = internal global %"class.std::__cxx11::basic_string" zeroinitializer, align 8
@_ZN8proxygen12_GLOBAL__N_12hqB5cxx11E = internal global %"class.std::__cxx11::basic_string" zeroinitializer, align 8
@_ZN8proxygen12_GLOBAL__N_12h3B5cxx11E = internal global %"class.std::__cxx11::basic_string" zeroinitializer, align 8
@_ZN8proxygen12_GLOBAL__N_111http_binaryB5cxx11E = internal global %"class.std::__cxx11::basic_string" zeroinitializer, align 8
@.str.12 = private unnamed_addr constant [137 x i8] c"generated/home/dtcxzyw/WorkSpace/Projects/compilers/llvm-opt-benchmark/bench/proxygen/proxygen/proxygen/lib/http/codec/CodecProtocol.cpp\00", align 1
@.str.13 = private unnamed_addr constant [12 x i8] c"Unreachable\00", align 1

; Function Attrs: mustprogress uwtable
define noundef nonnull align 8 dereferenceable(32) ptr @_ZN8proxygen22getCodecProtocolStringB5cxx11ENS_13CodecProtocolE(i8 noundef zeroext %proto) #4 personality ptr @__gxx_personality_v0 {
entry:
  %retval = alloca ptr, align 8
  %proto.addr = alloca i8, align 1
  %ref.tmp = alloca %"class.google::LogMessageFatal", align 8
  %exn.slot = alloca ptr, align 8
  %ehselector.slot = alloca i32, align 4
  store i8 %proto, ptr %proto.addr, align 1
  %0 = load i8, ptr %proto.addr, align 1
  switch i8 %0, label %sw.epilog [
    i8 0, label %sw.bb
    i8 1, label %sw.bb1
    i8 3, label %sw.bb2
    i8 2, label %sw.bb3
    i8 4, label %sw.bb4
  ]

sw.bb:                                            ; preds = %entry
  store ptr @_ZN8proxygen12_GLOBAL__N_18http_1_1B5cxx11E, ptr %retval, align 8
  br label %return

sw.bb1:                                           ; preds = %entry
  store ptr @_ZN8proxygen12_GLOBAL__N_16http_2B5cxx11E, ptr %retval, align 8
  br label %return

sw.bb2:                                           ; preds = %entry
  store ptr @_ZN8proxygen12_GLOBAL__N_12h3B5cxx11E, ptr %retval, align 8
  br label %return

sw.bb3:                                           ; preds = %entry
  store ptr @_ZN8proxygen12_GLOBAL__N_12hqB5cxx11E, ptr %retval, align 8
  br label %return

sw.bb4:                                           ; preds = %entry
  store ptr @_ZN8proxygen12_GLOBAL__N_111http_binaryB5cxx11E, ptr %retval, align 8
  br label %return

sw.epilog:                                        ; preds = %entry
  call void @_ZN6google15LogMessageFatalC1EPKci(ptr noundef nonnull align 8 dereferenceable(96) %ref.tmp, ptr noundef @.str.12, i32 noundef 62)
  %call = invoke noundef nonnull align 8 dereferenceable(8) ptr @_ZN6google10LogMessage6streamEv(ptr noundef nonnull align 8 dereferenceable(96) %ref.tmp)
          to label %invoke.cont unwind label %lpad

invoke.cont:                                      ; preds = %sw.epilog
  %call6 = invoke noundef nonnull align 8 dereferenceable(8) ptr @_ZStlsISt11char_traitsIcEERSt13basic_ostreamIcT_ES5_PKc(ptr noundef nonnull align 8 dereferenceable(8) %call, ptr noundef @.str.13)
          to label %invoke.cont5 unwind label %lpad

invoke.cont5:                                     ; preds = %invoke.cont
  call void @_ZN6google15LogMessageFatalD1Ev(ptr noundef nonnull align 8 dereferenceable(96) %ref.tmp) #13
  unreachable

lpad:                                             ; preds = %invoke.cont, %sw.epilog
  %1 = landingpad { ptr, i32 }
          cleanup
  %2 = extractvalue { ptr, i32 } %1, 0
  store ptr %2, ptr %exn.slot, align 8
  %3 = extractvalue { ptr, i32 } %1, 1
  store i32 %3, ptr %ehselector.slot, align 4
  call void @_ZN6google15LogMessageFatalD1Ev(ptr noundef nonnull align 8 dereferenceable(96) %ref.tmp) #13
  unreachable

4:                                                ; No predecessors!
  br label %eh.resume

return:                                           ; preds = %sw.bb4, %sw.bb3, %sw.bb2, %sw.bb1, %sw.bb
  %5 = load ptr, ptr %retval, align 8
  ret ptr %5

eh.resume:                                        ; preds = %4
  %exn = load ptr, ptr %exn.slot, align 8
  %sel = load i32, ptr %ehselector.slot, align 4
  %lpad.val = insertvalue { ptr, i32 } poison, ptr %exn, 0
  %lpad.val7 = insertvalue { ptr, i32 } %lpad.val, i32 %sel, 1
  resume { ptr, i32 } %lpad.val7
}