; Function Attrs: mustprogress uwtable
define noundef nonnull align 8 dereferenceable(32) ptr @_ZN8proxygen22getCodecProtocolStringB5cxx11ENS_13CodecProtocolE(i8 noundef zeroext %proto) local_unnamed_addr #3 personality ptr @__gxx_personality_v0 {
entry:
  %ref.tmp = alloca %"class.google::LogMessageFatal", align 8
  %0 = icmp ult i8 %proto, 5
  br i1 %0, label %switch.lookup, label %sw.epilog

sw.epilog:                                        ; preds = %entry
  call void @_ZN6google15LogMessageFatalC1EPKci(ptr noundef nonnull align 8 dereferenceable(96) %ref.tmp, ptr noundef nonnull @.str.12, i32 noundef 62)
  %call = invoke noundef nonnull align 8 dereferenceable(8) ptr @_ZN6google10LogMessage6streamEv(ptr noundef nonnull align 8 dereferenceable(96) %ref.tmp)
          to label %invoke.cont unwind label %lpad

invoke.cont:                                      ; preds = %sw.epilog
  %call6 = invoke noundef nonnull align 8 dereferenceable(8) ptr @_ZStlsISt11char_traitsIcEERSt13basic_ostreamIcT_ES5_PKc(ptr noundef nonnull align 8 dereferenceable(8) %call, ptr noundef nonnull @.str.13)
          to label %invoke.cont5 unwind label %lpad

invoke.cont5:                                     ; preds = %invoke.cont
  call void @_ZN6google15LogMessageFatalD1Ev(ptr noundef nonnull align 8 dereferenceable(96) %ref.tmp) #16
  unreachable

lpad:                                             ; preds = %invoke.cont, %sw.epilog
  %1 = landingpad { ptr, i32 }
          cleanup
  call void @_ZN6google15LogMessageFatalD1Ev(ptr noundef nonnull align 8 dereferenceable(96) %ref.tmp) #16
  unreachable

switch.lookup:                                    ; preds = %entry
  %2 = zext nneg i8 %proto to i64
  %switch.gep = getelementptr inbounds [5 x ptr], ptr @switch.table._ZN8proxygen22getCodecProtocolStringB5cxx11ENS_13CodecProtocolE, i64 0, i64 %2
  %switch.load = load ptr, ptr %switch.gep, align 8
  ret ptr %switch.load
}